; Function Attrs: mustprogress nounwind uwtable
define internal fastcc void @_ZN4nodeL19GetCodeCacheDefNameERKNSt7__cxx1112basic_stringIcSt11char_traitsIcESaIcEEE(ptr noalias align 8 %agg.result, ptr noundef nonnull align 8 dereferenceable(32) %id) unnamed_addr #3 {
entry:
  %buf = alloca [64 x i8], align 16
  %ref.tmp = alloca %"class.std::__cxx11::basic_string", align 8
  %ref.tmp10 = alloca %"class.std::allocator", align 1
  %ref.tmp11 = alloca %"class.std::__cxx11::basic_string", align 8
  %ref.tmp12 = alloca %"class.std::allocator", align 1
  call void @llvm.memset.p0.i64(ptr noundef nonnull align 16 dereferenceable(64) %buf, i8 0, i64 64, i1 false)
  %call = tail call noundef i64 @_ZNKSt7__cxx1112basic_stringIcSt11char_traitsIcESaIcEE4sizeEv(ptr noundef nonnull align 8 dereferenceable(32) %id) #23
  %cmp = icmp ugt i64 %call, 63
  br i1 %cmp, label %do.body3, label %for.cond.preheader

for.cond.preheader:                               ; preds = %entry
  %cmp512.not = icmp eq i64 %call, 0
  br i1 %cmp512.not, label %for.end, label %for.body

do.body3:                                         ; preds = %entry
  tail call void @_ZN4node6AssertERKNS_13AssertionInfoE(ptr noundef nonnull align 8 dereferenceable(24) @_ZZN4nodeL19GetCodeCacheDefNameERKNSt7__cxx1112basic_stringIcSt11char_traitsIcESaIcEEEE4args) #23
  tail call void @abort() #25
  unreachable

for.body:                                         ; preds = %for.cond.preheader, %for.body
  %i.013 = phi i64 [ %inc, %for.body ], [ 0, %for.cond.preheader ]
  %call6 = tail call noundef nonnull align 1 dereferenceable(1) ptr @_ZNKSt7__cxx1112basic_stringIcSt11char_traitsIcESaIcEEixEm(ptr noundef nonnull align 8 dereferenceable(32) %id, i64 noundef %i.013) #23
  %0 = load i8, ptr %call6, align 1
  %1 = and i8 %0, -3
  %or.cond = icmp eq i8 %1, 45
  %cond = select i1 %or.cond, i8 95, i8 %0
  %arrayidx = getelementptr inbounds [64 x i8], ptr %buf, i64 0, i64 %i.013
  store i8 %cond, ptr %arrayidx, align 1
  %inc = add nuw i64 %i.013, 1
  %exitcond.not = icmp eq i64 %inc, %call
  br i1 %exitcond.not, label %for.end, label %for.body, !llvm.loop !249

for.end:                                          ; preds = %for.body, %for.cond.preheader
  call void @_ZNSaIcEC1Ev(ptr noundef nonnull align 1 dereferenceable(1) %ref.tmp10) #23
  %call.i = call noundef ptr @_ZNSt7__cxx1112basic_stringIcSt11char_traitsIcESaIcEE13_M_local_dataEv(ptr noundef nonnull align 8 dereferenceable(32) %ref.tmp) #23
  call void @_ZNSt7__cxx1112basic_stringIcSt11char_traitsIcESaIcEE12_Alloc_hiderC1EPcRKS3_(ptr noundef nonnull align 8 dereferenceable(8) %ref.tmp, ptr noundef %call.i, ptr noundef nonnull align 1 dereferenceable(1) %ref.tmp10) #23
  %call.i.i = call noundef i64 @strlen(ptr noundef nonnull dereferenceable(1) %buf) #23
  %add.ptr.i = getelementptr inbounds i8, ptr %buf, i64 %call.i.i
  call void @_ZNSt7__cxx1112basic_stringIcSt11char_traitsIcESaIcEE12_M_constructIPKcEEvT_S8_St20forward_iterator_tag(ptr noundef nonnull align 8 dereferenceable(32) %ref.tmp, ptr noundef nonnull %buf, ptr noundef nonnull %add.ptr.i)
  call void @_ZNSaIcEC1Ev(ptr noundef nonnull align 1 dereferenceable(1) %ref.tmp12) #23
  %call.i8 = call noundef ptr @_ZNSt7__cxx1112basic_stringIcSt11char_traitsIcESaIcEE13_M_local_dataEv(ptr noundef nonnull align 8 dereferenceable(32) %ref.tmp11) #23
  call void @_ZNSt7__cxx1112basic_stringIcSt11char_traitsIcESaIcEE12_Alloc_hiderC1EPcRKS3_(ptr noundef nonnull align 8 dereferenceable(8) %ref.tmp11, ptr noundef %call.i8, ptr noundef nonnull align 1 dereferenceable(1) %ref.tmp12) #23
  call void @_ZNSt7__cxx1112basic_stringIcSt11char_traitsIcESaIcEE12_M_constructIPKcEEvT_S8_St20forward_iterator_tag(ptr noundef nonnull align 8 dereferenceable(32) %ref.tmp11, ptr noundef nonnull @.str.211, ptr noundef nonnull getelementptr inbounds ([12 x i8], ptr @.str.211, i64 0, i64 11))
  %call.i11 = call noundef i64 @_ZNKSt7__cxx1112basic_stringIcSt11char_traitsIcESaIcEE4sizeEv(ptr noundef nonnull align 8 dereferenceable(32) %ref.tmp) #23, !noalias !250
  %call1.i = call noundef i64 @_ZNKSt7__cxx1112basic_stringIcSt11char_traitsIcESaIcEE4sizeEv(ptr noundef nonnull align 8 dereferenceable(32) %ref.tmp11) #23, !noalias !250
  %add.i = add i64 %call1.i, %call.i11
  %call2.i = call noundef i64 @_ZNKSt7__cxx1112basic_stringIcSt11char_traitsIcESaIcEE8capacityEv(ptr noundef nonnull align 8 dereferenceable(32) %ref.tmp) #23, !noalias !250
  %cmp.i = icmp ugt i64 %add.i, %call2.i
  br i1 %cmp.i, label %land.lhs.true.i, label %if.end7.i

land.lhs.true.i:                                  ; preds = %for.end
  %call3.i = call noundef i64 @_ZNKSt7__cxx1112basic_stringIcSt11char_traitsIcESaIcEE8capacityEv(ptr noundef nonnull align 8 dereferenceable(32) %ref.tmp11) #23, !noalias !250
  %cmp4.not.i = icmp ugt i64 %add.i, %call3.i
  br i1 %cmp4.not.i, label %if.end7.i, label %if.then5.i

if.then5.i:                                       ; preds = %land.lhs.true.i
  %call6.i = call noundef nonnull align 8 dereferenceable(32) ptr @_ZNSt7__cxx1112basic_stringIcSt11char_traitsIcESaIcEE6insertEmRKS4_(ptr noundef nonnull align 8 dereferenceable(32) %ref.tmp11, i64 noundef 0, ptr noundef nonnull align 8 dereferenceable(32) %ref.tmp) #23, !noalias !250
  br label %_ZStplIcSt11char_traitsIcESaIcEENSt7__cxx1112basic_stringIT_T0_T1_EEOS8_S9_.exit

if.end7.i:                                        ; preds = %land.lhs.true.i, %for.end
  %call8.i = call noundef nonnull align 8 dereferenceable(32) ptr @_ZNSt7__cxx1112basic_stringIcSt11char_traitsIcESaIcEE6appendERKS4_(ptr noundef nonnull align 8 dereferenceable(32) %ref.tmp, ptr noundef nonnull align 8 dereferenceable(32) %ref.tmp11) #23, !noalias !250
  br label %_ZStplIcSt11char_traitsIcESaIcEENSt7__cxx1112basic_stringIT_T0_T1_EEOS8_S9_.exit

_ZStplIcSt11char_traitsIcESaIcEENSt7__cxx1112basic_stringIT_T0_T1_EEOS8_S9_.exit: ; preds = %if.then5.i, %if.end7.i
  %call8.sink.i = phi ptr [ %call8.i, %if.end7.i ], [ %call6.i, %if.then5.i ]
  call void @_ZNSt7__cxx1112basic_stringIcSt11char_traitsIcESaIcEEC1EOS4_(ptr noundef nonnull align 8 dereferenceable(32) %agg.result, ptr noundef nonnull align 8 dereferenceable(32) %call8.sink.i) #23
  call void @_ZNSt7__cxx1112basic_stringIcSt11char_traitsIcESaIcEED1Ev(ptr noundef nonnull align 8 dereferenceable(32) %ref.tmp11) #23
  call void @_ZNSaIcED1Ev(ptr noundef nonnull align 1 dereferenceable(1) %ref.tmp12) #23
  call void @_ZNSt7__cxx1112basic_stringIcSt11char_traitsIcESaIcEED1Ev(ptr noundef nonnull align 8 dereferenceable(32) %ref.tmp) #23
  call void @_ZNSaIcED1Ev(ptr noundef nonnull align 1 dereferenceable(1) %ref.tmp10) #23
  ret void
}